; Function Attrs: mustprogress nofree norecurse nosync nounwind willreturn memory(write, argmem: readwrite, inaccessiblemem: none) uwtable
define dso_local void @_ZN4Luau7CodeGen9IrBuilder10beginBlockENS0_4IrOpE(ptr noundef nonnull align 8 captures(none) dereferenceable(752) initializes((8, 9), (648, 652)) %0, i32 %1) local_unnamed_addr #4 align 2 {
  %3 = getelementptr inbounds nuw i8, ptr %0, i64 24
  %4 = lshr i32 %1, 4
  %5 = zext nneg i32 %4 to i64
  %6 = load ptr, ptr %3, align 8, !tbaa !123
  %7 = getelementptr inbounds nuw %"struct.Luau::CodeGen::IrBlock", ptr %6, i64 %5
  %8 = getelementptr inbounds nuw i8, ptr %0, i64 648
  store i32 %4, ptr %8, align 8, !tbaa !100
  %9 = getelementptr inbounds nuw i8, ptr %0, i64 48
  %10 = getelementptr inbounds nuw i8, ptr %0, i64 56
  %11 = load ptr, ptr %10, align 8, !tbaa !124
  %12 = load ptr, ptr %9, align 8, !tbaa !125
  %13 = ptrtoint ptr %11 to i64
  %14 = ptrtoint ptr %12 to i64
  %15 = sub i64 %13, %14
  %16 = sdiv exact i64 %15, 44
  %17 = trunc i64 %16 to i32
  %18 = getelementptr inbounds nuw i8, ptr %7, i64 4
  store i32 %17, ptr %18, align 4, !tbaa !126
  %19 = getelementptr inbounds nuw i8, ptr %7, i64 12
  store i32 %17, ptr %19, align 4, !tbaa !131
  %20 = getelementptr inbounds nuw i8, ptr %0, i64 8
  store i8 0, ptr %20, align 8, !tbaa !9
  ret void
}